; ModuleID = '41/1214.c'
source_filename = "41/1214.c"
target datalayout = "e-m:e-p270:32:32-p271:32:32-p272:64:64-i64:64-f80:128-n8:16:32:64-S128"
target triple = "x86_64-pc-linux-gnu"

@.str = private unnamed_addr constant [16 x i8] c"%d %d %d %d %d\0A\00", align 1

; Function Attrs: noinline nounwind uwtable
define dso_local i32 @main() #0 {
  %1 = alloca i32, align 4
  %2 = alloca i32, align 4
  %3 = alloca i32, align 4
  %4 = alloca i32, align 4
  %5 = alloca i32, align 4
  %6 = alloca i32, align 4
  %7 = alloca i32, align 4
  %8 = alloca i32, align 4
  %9 = alloca i32, align 4
  %10 = alloca i32, align 4
  %11 = alloca i32, align 4
  store i32 0, i32* %1, align 4
  store i32 1, i32* %2, align 4
  br label %12

12:                                               ; preds = %108, %0
  %13 = load i32, i32* %2, align 4
  %14 = icmp sle i32 %13, 5
  br i1 %14, label %15, label %111

15:                                               ; preds = %12
  store i32 1, i32* %3, align 4
  br label %16

16:                                               ; preds = %104, %15
  %17 = load i32, i32* %3, align 4
  %18 = icmp sle i32 %17, 5
  br i1 %18, label %19, label %107

19:                                               ; preds = %16
  store i32 1, i32* %4, align 4
  br label %20

20:                                               ; preds = %100, %19
  %21 = load i32, i32* %4, align 4
  %22 = icmp sle i32 %21, 5
  br i1 %22, label %23, label %103

23:                                               ; preds = %20
  store i32 1, i32* %5, align 4
  br label %24

24:                                               ; preds = %96, %23
  %25 = load i32, i32* %5, align 4
  %26 = icmp sle i32 %25, 5
  br i1 %26, label %27, label %99

27:                                               ; preds = %24
  store i32 1, i32* %6, align 4
  br label %28

28:                                               ; preds = %92, %27
  %29 = load i32, i32* %6, align 4
  %30 = icmp sle i32 %29, 5
  br i1 %30, label %31, label %95

31:                                               ; preds = %28
  %32 = load i32, i32* %2, align 4
  store i32 %32, i32* %7, align 4
  %33 = load i32, i32* %3, align 4
  store i32 %33, i32* %8, align 4
  %34 = load i32, i32* %4, align 4
  store i32 %34, i32* %9, align 4
  %35 = load i32, i32* %5, align 4
  store i32 %35, i32* %10, align 4
  %36 = load i32, i32* %6, align 4
  store i32 %36, i32* %11, align 4
  %37 = load i32, i32* %7, align 4
  %38 = load i32, i32* %8, align 4
  %39 = load i32, i32* %9, align 4
  %40 = load i32, i32* %10, align 4
  %41 = load i32, i32* %11, align 4
  %42 = call i32 @panduan(i32 %37, i32 %38, i32 %39, i32 %40, i32 %41)
  %43 = icmp eq i32 %42, 1
  br i1 %43, label %44, label %91

44:                                               ; preds = %31
  %45 = load i32, i32* %7, align 4
  %46 = load i32, i32* %8, align 4
  %47 = icmp ne i32 %45, %46
  br i1 %47, label %48, label %91

48:                                               ; preds = %44
  %49 = load i32, i32* %7, align 4
  %50 = load i32, i32* %9, align 4
  %51 = icmp ne i32 %49, %50
  br i1 %51, label %52, label %91

52:                                               ; preds = %48
  %53 = load i32, i32* %7, align 4
  %54 = load i32, i32* %10, align 4
  %55 = icmp ne i32 %53, %54
  br i1 %55, label %56, label %91

56:                                               ; preds = %52
  %57 = load i32, i32* %7, align 4
  %58 = load i32, i32* %11, align 4
  %59 = icmp ne i32 %57, %58
  br i1 %59, label %60, label %91

60:                                               ; preds = %56
  %61 = load i32, i32* %8, align 4
  %62 = load i32, i32* %9, align 4
  %63 = icmp ne i32 %61, %62
  br i1 %63, label %64, label %91

64:                                               ; preds = %60
  %65 = load i32, i32* %8, align 4
  %66 = load i32, i32* %11, align 4
  %67 = icmp ne i32 %65, %66
  br i1 %67, label %68, label %91

68:                                               ; preds = %64
  %69 = load i32, i32* %8, align 4
  %70 = load i32, i32* %10, align 4
  %71 = icmp ne i32 %69, %70
  br i1 %71, label %72, label %91

72:                                               ; preds = %68
  %73 = load i32, i32* %9, align 4
  %74 = load i32, i32* %10, align 4
  %75 = icmp ne i32 %73, %74
  br i1 %75, label %76, label %91

76:                                               ; preds = %72
  %77 = load i32, i32* %9, align 4
  %78 = load i32, i32* %11, align 4
  %79 = icmp ne i32 %77, %78
  br i1 %79, label %80, label %91

80:                                               ; preds = %76
  %81 = load i32, i32* %10, align 4
  %82 = load i32, i32* %11, align 4
  %83 = icmp ne i32 %81, %82
  br i1 %83, label %84, label %91

84:                                               ; preds = %80
  %85 = load i32, i32* %7, align 4
  %86 = load i32, i32* %8, align 4
  %87 = load i32, i32* %9, align 4
  %88 = load i32, i32* %10, align 4
  %89 = load i32, i32* %11, align 4
  %90 = call i32 (i8*, ...) @printf(i8* getelementptr inbounds ([16 x i8], [16 x i8]* @.str, i64 0, i64 0), i32 %85, i32 %86, i32 %87, i32 %88, i32 %89)
  br label %91

91:                                               ; preds = %84, %80, %76, %72, %68, %64, %60, %56, %52, %48, %44, %31
  br label %92

92:                                               ; preds = %91
  %93 = load i32, i32* %6, align 4
  %94 = add nsw i32 %93, 1
  store i32 %94, i32* %6, align 4
  br label %28

95:                                               ; preds = %28
  br label %96

96:                                               ; preds = %95
  %97 = load i32, i32* %5, align 4
  %98 = add nsw i32 %97, 1
  store i32 %98, i32* %5, align 4
  br label %24

99:                                               ; preds = %24
  br label %100

100:                                              ; preds = %99
  %101 = load i32, i32* %4, align 4
  %102 = add nsw i32 %101, 1
  store i32 %102, i32* %4, align 4
  br label %20

103:                                              ; preds = %20
  br label %104

104:                                              ; preds = %103
  %105 = load i32, i32* %3, align 4
  %106 = add nsw i32 %105, 1
  store i32 %106, i32* %3, align 4
  br label %16

107:                                              ; preds = %16
  br label %108

108:                                              ; preds = %107
  %109 = load i32, i32* %2, align 4
  %110 = add nsw i32 %109, 1
  store i32 %110, i32* %2, align 4
  br label %12

111:                                              ; preds = %12
  ret i32 0
}

; Function Attrs: noinline nounwind uwtable
define dso_local i32 @panduan(i32 %0, i32 %1, i32 %2, i32 %3, i32 %4) #0 {
  %6 = alloca i32, align 4
  %7 = alloca i32, align 4
  %8 = alloca i32, align 4
  %9 = alloca i32, align 4
  %10 = alloca i32, align 4
  %11 = alloca i32, align 4
  store i32 %0, i32* %7, align 4
  store i32 %1, i32* %8, align 4
  store i32 %2, i32* %9, align 4
  store i32 %3, i32* %10, align 4
  store i32 %4, i32* %11, align 4
  %12 = load i32, i32* %7, align 4
  %13 = icmp eq i32 %12, 1
  br i1 %13, label %32, label %14

14:                                               ; preds = %5
  %15 = load i32, i32* %8, align 4
  %16 = icmp eq i32 %15, 1
  br i1 %16, label %32, label %17

17:                                               ; preds = %14
  %18 = load i32, i32* %11, align 4
  %19 = icmp eq i32 %18, 1
  br i1 %19, label %32, label %20

20:                                               ; preds = %17
  %21 = load i32, i32* %7, align 4
  %22 = icmp eq i32 %21, 2
  br i1 %22, label %32, label %23

23:                                               ; preds = %20
  %24 = load i32, i32* %11, align 4
  %25 = icmp eq i32 %24, 2
  br i1 %25, label %32, label %26

26:                                               ; preds = %23
  %27 = load i32, i32* %11, align 4
  %28 = icmp eq i32 %27, 3
  br i1 %28, label %32, label %29

29:                                               ; preds = %26
  %30 = load i32, i32* %11, align 4
  %31 = icmp eq i32 %30, 1
  br i1 %31, label %32, label %33

32:                                               ; preds = %29, %26, %23, %20, %17, %14, %5
  store i32 0, i32* %6, align 4
  br label %82

33:                                               ; preds = %29
  %34 = load i32, i32* %9, align 4
  %35 = icmp eq i32 %34, 1
  br i1 %35, label %36, label %58

36:                                               ; preds = %33
  %37 = load i32, i32* %7, align 4
  %38 = icmp ne i32 %37, 5
  br i1 %38, label %39, label %40

39:                                               ; preds = %36
  store i32 0, i32* %6, align 4
  br label %82

40:                                               ; preds = %36
  %41 = load i32, i32* %8, align 4
  %42 = icmp eq i32 %41, 2
  br i1 %42, label %43, label %51

43:                                               ; preds = %40
  %44 = load i32, i32* %11, align 4
  %45 = icmp eq i32 %44, 1
  br i1 %45, label %49, label %46

46:                                               ; preds = %43
  %47 = load i32, i32* %10, align 4
  %48 = icmp eq i32 %47, 1
  br i1 %48, label %49, label %50

49:                                               ; preds = %46, %43
  store i32 0, i32* %6, align 4
  br label %82

50:                                               ; preds = %46
  store i32 1, i32* %6, align 4
  br label %82

51:                                               ; preds = %40
  %52 = load i32, i32* %10, align 4
  %53 = icmp eq i32 %52, 2
  br i1 %53, label %54, label %55

54:                                               ; preds = %51
  store i32 0, i32* %6, align 4
  br label %82

55:                                               ; preds = %51
  br label %56

56:                                               ; preds = %55
  br label %57

57:                                               ; preds = %56
  br label %81

58:                                               ; preds = %33
  %59 = load i32, i32* %10, align 4
  %60 = icmp eq i32 %59, 1
  br i1 %60, label %61, label %80

61:                                               ; preds = %58
  %62 = load i32, i32* %9, align 4
  %63 = icmp ne i32 %62, 5
  br i1 %63, label %64, label %65

64:                                               ; preds = %61
  store i32 0, i32* %6, align 4
  br label %82

65:                                               ; preds = %61
  %66 = load i32, i32* %8, align 4
  %67 = icmp eq i32 %66, 2
  br i1 %67, label %68, label %69

68:                                               ; preds = %65
  store i32 0, i32* %6, align 4
  br label %82

69:                                               ; preds = %65
  %70 = load i32, i32* %9, align 4
  %71 = icmp eq i32 %70, 2
  br i1 %71, label %72, label %77

72:                                               ; preds = %69
  %73 = load i32, i32* %7, align 4
  %74 = icmp eq i32 %73, 5
  br i1 %74, label %75, label %76

75:                                               ; preds = %72
  store i32 1, i32* %6, align 4
  br label %82

76:                                               ; preds = %72
  store i32 0, i32* %6, align 4
  br label %82

77:                                               ; preds = %69
  br label %78

78:                                               ; preds = %77
  br label %79

79:                                               ; preds = %78
  br label %80

80:                                               ; preds = %79, %58
  br label %81

81:                                               ; preds = %80, %57
  br label %82

82:                                               ; preds = %32, %39, %49, %50, %54, %64, %68, %75, %76, %81
  %83 = load i32, i32* %6, align 4
  ret i32 %83
}

declare dso_local i32 @printf(i8*, ...) #1


!llvm.module.flags = !{!0}
!llvm.ident = !{!1}

!0 = !{i32 1, !"wchar_size", i32 4}
!1 = !{!"clang version 10.0.0-4ubuntu1 "}
